target datalayout = "e-m:e-p270:32:32-p271:32:32-p272:64:64-i64:64-i128:128-f80:128-n8:16:32:64-S128"
target triple = "x86_64-pc-linux-gnu"

%struct.H5EA_dblock_t = type { %struct.H5C_cache_entry_t, i64, ptr, ptr, i64, i64, i8, ptr, ptr, i64, i64 }
%struct.H5C_cache_entry_t = type { ptr, i64, i64, ptr, i8, ptr, i8, i8, i8, i8, i32, i8, i8, i8, i8, i8, i32, ptr, i32, i32, i32, i32, i32, i8, i8, ptr, ptr, ptr, ptr, ptr, ptr, i8, i32, i8, i64, ptr, i64, i64, i32, i8, i32, i32, i8, ptr, ptr, ptr }
%struct.H5EA_hdr_t = type { %struct.H5C_cache_entry_t, %struct.H5EA_create_t, i64, %struct.H5EA_stat_t, %struct.anon.1, i64, i64, i64, ptr, i64, i8, i64, i64, i8, i64, ptr, i64, ptr, i8, ptr, ptr }
%struct.H5EA_create_t = type { ptr, i8, i8, i8, i8, i8, i8 }
%struct.H5EA_stat_t = type { %struct.anon, %struct.anon.0 }
%struct.anon = type { i64, i64, i64 }
%struct.anon.0 = type { i64, i64, i64, i64, i64, i64 }
%struct.anon.1 = type { i64, ptr }

@H5EA_init_g = external global i8, align 1
@H5_libterm_g = external global i8, align 1
@.str = private unnamed_addr constant [104 x i8] c"generated/home/dtcxzyw/WorkSpace/Projects/compilers/llvm-opt-benchmark/bench/hdf5/hdf5/src/H5EAdblock.c\00", align 1
@__func__.H5EA__dblock_alloc = private unnamed_addr constant [19 x i8] c"H5EA__dblock_alloc\00", align 1
@H5E_EARRAY_g = external global i64, align 8
@H5E_CANTALLOC_g = external global i64, align 8
@.str.1 = private unnamed_addr constant [57 x i8] c"memory allocation failed for extensible array data block\00", align 1
@H5E_CANTINC_g = external global i64, align 8
@.str.2 = private unnamed_addr constant [55 x i8] c"can't increment reference count on shared array header\00", align 1
@.str.3 = private unnamed_addr constant [55 x i8] c"memory allocation failed for data block element buffer\00", align 1
@H5E_CANTFREE_g = external global i64, align 8
@.str.4 = private unnamed_addr constant [46 x i8] c"unable to destroy extensible array data block\00", align 1
@H5_H5EA_dblock_t_reg_free_list = internal global { i8, [3 x i8], i32, i32, [4 x i8], ptr, i64, ptr } { i8 0, [3 x i8] zeroinitializer, i32 0, i32 0, [4 x i8] zeroinitializer, ptr @.str.16, i64 328, ptr null }, align 8

; Function Attrs: nounwind uwtable
define ptr @H5EA__dblock_alloc(ptr noundef %0, ptr noundef %1, i64 noundef %2) #0 {
  %4 = alloca ptr, align 8
  %5 = alloca ptr, align 8
  %6 = alloca i64, align 8
  %7 = alloca ptr, align 8
  %8 = alloca ptr, align 8
  %9 = alloca i8, align 1
  store ptr %0, ptr %4, align 8, !tbaa !3
  store ptr %1, ptr %5, align 8, !tbaa !8
  store i64 %2, ptr %6, align 8, !tbaa !9
  call void @llvm.lifetime.start.p0(i64 8, ptr %7) #5
  store ptr null, ptr %7, align 8, !tbaa !11
  call void @llvm.lifetime.start.p0(i64 8, ptr %8) #5
  store ptr null, ptr %8, align 8, !tbaa !11
  call void @llvm.lifetime.start.p0(i64 1, ptr %9) #5
  store i8 0, ptr %9, align 1, !tbaa !13
  %10 = load i8, ptr @H5EA_init_g, align 1, !tbaa !13, !range !15, !noundef !16
  %11 = trunc i8 %10 to i1
  br i1 %11, label %16, label %12

12:                                               ; preds = %3
  %13 = load i8, ptr @H5_libterm_g, align 1, !tbaa !13, !range !15, !noundef !16
  %14 = trunc i8 %13 to i1
  %15 = xor i1 %14, true
  br label %16

16:                                               ; preds = %12, %3
  %17 = phi i1 [ true, %3 ], [ %15, %12 ]
  %18 = xor i1 %17, true
  %19 = xor i1 %18, true
  %20 = zext i1 %19 to i32
  %21 = sext i32 %20 to i64
  %22 = call i64 @llvm.expect.i64(i64 %21, i64 1)
  %23 = icmp ne i64 %22, 0
  br i1 %23, label %24, label %149

24:                                               ; preds = %16
  %25 = call noalias ptr @H5FL_reg_calloc(ptr noundef @H5_H5EA_dblock_t_reg_free_list)
  store ptr %25, ptr %7, align 8, !tbaa !11
  %26 = icmp eq ptr null, %25
  br i1 %26, label %27, label %46

27:                                               ; preds = %24
  br label %28

28:                                               ; preds = %27
  br label %29

29:                                               ; preds = %28
  br label %30

30:                                               ; preds = %29
  %31 = load i64, ptr @H5E_EARRAY_g, align 8, !tbaa !9
  %32 = load i64, ptr @H5E_CANTALLOC_g, align 8, !tbaa !9
  %33 = call i32 (ptr, ptr, i32, i64, i64, ptr, ...) @H5E_printf_stack(ptr noundef @.str, ptr noundef @__func__.H5EA__dblock_alloc, i32 noundef 98, i64 noundef %31, i64 noundef %32, ptr noundef @.str.1)
  br label %34

34:                                               ; preds = %30
  br label %35

35:                                               ; preds = %34
  store i8 1, ptr %9, align 1, !tbaa !13
  %36 = load i8, ptr %9, align 1, !tbaa !13, !range !15, !noundef !16
  %37 = trunc i8 %36 to i1
  %38 = zext i1 %37 to i8
  store i8 %38, ptr %9, align 1, !tbaa !13
  br label %39

39:                                               ; preds = %35
  br label %40

40:                                               ; preds = %39
  br label %41

41:                                               ; preds = %40
  store ptr null, ptr %8, align 8, !tbaa !11
  br label %121

42:                                               ; No predecessors!
  br label %43

43:                                               ; preds = %42
  br label %44

44:                                               ; preds = %43
  br label %45

45:                                               ; preds = %44
  br label %46

46:                                               ; preds = %45, %24
  %47 = load ptr, ptr %4, align 8, !tbaa !3
  %48 = call i32 @H5EA__hdr_incr(ptr noundef %47)
  %49 = icmp slt i32 %48, 0
  br i1 %49, label %50, label %69

50:                                               ; preds = %46
  br label %51

51:                                               ; preds = %50
  br label %52

52:                                               ; preds = %51
  br label %53

53:                                               ; preds = %52
  %54 = load i64, ptr @H5E_EARRAY_g, align 8, !tbaa !9
  %55 = load i64, ptr @H5E_CANTINC_g, align 8, !tbaa !9
  %56 = call i32 (ptr, ptr, i32, i64, i64, ptr, ...) @H5E_printf_stack(ptr noundef @.str, ptr noundef @__func__.H5EA__dblock_alloc, i32 noundef 102, i64 noundef %54, i64 noundef %55, ptr noundef @.str.2)
  br label %57

57:                                               ; preds = %53
  br label %58

58:                                               ; preds = %57
  store i8 1, ptr %9, align 1, !tbaa !13
  %59 = load i8, ptr %9, align 1, !tbaa !13, !range !15, !noundef !16
  %60 = trunc i8 %59 to i1
  %61 = zext i1 %60 to i8
  store i8 %61, ptr %9, align 1, !tbaa !13
  br label %62

62:                                               ; preds = %58
  br label %63

63:                                               ; preds = %62
  br label %64

64:                                               ; preds = %63
  store ptr null, ptr %8, align 8, !tbaa !11
  br label %121

65:                                               ; No predecessors!
  br label %66

66:                                               ; preds = %65
  br label %67

67:                                               ; preds = %66
  br label %68

68:                                               ; preds = %67
  br label %69

69:                                               ; preds = %68, %46
  %70 = load ptr, ptr %4, align 8, !tbaa !3
  %71 = load ptr, ptr %7, align 8, !tbaa !11
  %72 = getelementptr inbounds nuw %struct.H5EA_dblock_t, ptr %71, i32 0, i32 3
  store ptr %70, ptr %72, align 8, !tbaa !17
  %73 = load ptr, ptr %5, align 8, !tbaa !8
  %74 = load ptr, ptr %7, align 8, !tbaa !11
  %75 = getelementptr inbounds nuw %struct.H5EA_dblock_t, ptr %74, i32 0, i32 8
  store ptr %73, ptr %75, align 8, !tbaa !28
  %76 = load i64, ptr %6, align 8, !tbaa !9
  %77 = load ptr, ptr %7, align 8, !tbaa !11
  %78 = getelementptr inbounds nuw %struct.H5EA_dblock_t, ptr %77, i32 0, i32 9
  store i64 %76, ptr %78, align 8, !tbaa !29
  %79 = load i64, ptr %6, align 8, !tbaa !9
  %80 = load ptr, ptr %4, align 8, !tbaa !3
  %81 = getelementptr inbounds nuw %struct.H5EA_hdr_t, ptr %80, i32 0, i32 16
  %82 = load i64, ptr %81, align 8, !tbaa !30
  %83 = icmp ugt i64 %79, %82
  br i1 %83, label %84, label %92

84:                                               ; preds = %69
  %85 = load i64, ptr %6, align 8, !tbaa !9
  %86 = load ptr, ptr %4, align 8, !tbaa !3
  %87 = getelementptr inbounds nuw %struct.H5EA_hdr_t, ptr %86, i32 0, i32 16
  %88 = load i64, ptr %87, align 8, !tbaa !30
  %89 = udiv i64 %85, %88
  %90 = load ptr, ptr %7, align 8, !tbaa !11
  %91 = getelementptr inbounds nuw %struct.H5EA_dblock_t, ptr %90, i32 0, i32 10
  store i64 %89, ptr %91, align 8, !tbaa !41
  br label %119

92:                                               ; preds = %69
  %93 = load ptr, ptr %4, align 8, !tbaa !3
  %94 = load i64, ptr %6, align 8, !tbaa !9
  %95 = call noalias ptr @H5EA__hdr_alloc_elmts(ptr noundef %93, i64 noundef %94)
  %96 = load ptr, ptr %7, align 8, !tbaa !11
  %97 = getelementptr inbounds nuw %struct.H5EA_dblock_t, ptr %96, i32 0, i32 2
  store ptr %95, ptr %97, align 8, !tbaa !42
  %98 = icmp eq ptr null, %95
  br i1 %98, label %99, label %118

99:                                               ; preds = %92
  br label %100

100:                                              ; preds = %99
  br label %101

101:                                              ; preds = %100
  br label %102

102:                                              ; preds = %101
  %103 = load i64, ptr @H5E_EARRAY_g, align 8, !tbaa !9
  %104 = load i64, ptr @H5E_CANTALLOC_g, align 8, !tbaa !9
  %105 = call i32 (ptr, ptr, i32, i64, i64, ptr, ...) @H5E_printf_stack(ptr noundef @.str, ptr noundef @__func__.H5EA__dblock_alloc, i32 noundef 119, i64 noundef %103, i64 noundef %104, ptr noundef @.str.3)
  br label %106

106:                                              ; preds = %102
  br label %107

107:                                              ; preds = %106
  store i8 1, ptr %9, align 1, !tbaa !13
  %108 = load i8, ptr %9, align 1, !tbaa !13, !range !15, !noundef !16
  %109 = trunc i8 %108 to i1
  %110 = zext i1 %109 to i8
  store i8 %110, ptr %9, align 1, !tbaa !13
  br label %111

111:                                              ; preds = %107
  br label %112

112:                                              ; preds = %111
  br label %113

113:                                              ; preds = %112
  store ptr null, ptr %8, align 8, !tbaa !11
  br label %121

114:                                              ; No predecessors!
  br label %115

115:                                              ; preds = %114
  br label %116

116:                                              ; preds = %115
  br label %117

117:                                              ; preds = %116
  br label %118

118:                                              ; preds = %117, %92
  br label %119

119:                                              ; preds = %118, %84
  %120 = load ptr, ptr %7, align 8, !tbaa !11
  store ptr %120, ptr %8, align 8, !tbaa !11
  br label %121

121:                                              ; preds = %119, %113, %64, %41
  %122 = load ptr, ptr %8, align 8, !tbaa !11
  %123 = icmp ne ptr %122, null
  br i1 %123, label %148, label %124

124:                                              ; preds = %121
  %125 = load ptr, ptr %7, align 8, !tbaa !11
  %126 = icmp ne ptr %125, null
  br i1 %126, label %127, label %147

127:                                              ; preds = %124
  %128 = load ptr, ptr %7, align 8, !tbaa !11
  %129 = call i32 @H5EA__dblock_dest(ptr noundef %128)
  %130 = icmp slt i32 %129, 0
  br i1 %130, label %131, label %147

131:                                              ; preds = %127
  br label %132

132:                                              ; preds = %131
  br label %133

133:                                              ; preds = %132
  br label %134

134:                                              ; preds = %133
  %135 = load i64, ptr @H5E_EARRAY_g, align 8, !tbaa !9
  %136 = load i64, ptr @H5E_CANTFREE_g, align 8, !tbaa !9
  %137 = call i32 (ptr, ptr, i32, i64, i64, ptr, ...) @H5E_printf_stack(ptr noundef @.str, ptr noundef @__func__.H5EA__dblock_alloc, i32 noundef 128, i64 noundef %135, i64 noundef %136, ptr noundef @.str.4)
  br label %138

138:                                              ; preds = %134
  br label %139

139:                                              ; preds = %138
  store i8 1, ptr %9, align 1, !tbaa !13
  %140 = load i8, ptr %9, align 1, !tbaa !13, !range !15, !noundef !16
  %141 = trunc i8 %140 to i1
  %142 = zext i1 %141 to i8
  store i8 %142, ptr %9, align 1, !tbaa !13
  br label %143

143:                                              ; preds = %139
  br label %144

144:                                              ; preds = %143
  store ptr null, ptr %8, align 8, !tbaa !11
  br label %145

145:                                              ; preds = %144
  br label %146

146:                                              ; preds = %145
  br label %147

147:                                              ; preds = %146, %127, %124
  br label %148

148:                                              ; preds = %147, %121
  br label %149

149:                                              ; preds = %148, %16
  %150 = load ptr, ptr %8, align 8, !tbaa !11
  call void @llvm.lifetime.end.p0(i64 1, ptr %9) #5
  call void @llvm.lifetime.end.p0(i64 8, ptr %8) #5
  call void @llvm.lifetime.end.p0(i64 8, ptr %7) #5
  ret ptr %150
}