; Function Attrs: nounwind uwtable
define ptr @H5EA__dblock_alloc(ptr noundef %0, ptr noundef %1, i64 noundef %2) local_unnamed_addr #0 {
  %4 = load i8, ptr @H5EA_init_g, align 1, !tbaa !3, !range !7, !noundef !8
  %5 = trunc nuw i8 %4 to i1
  %6 = load i8, ptr @H5_libterm_g, align 1, !range !7
  %7 = trunc nuw i8 %6 to i1
  %8 = xor i1 %7, true
  %9 = select i1 %5, i1 true, i1 %8
  br i1 %9, label %10, label %.thread, !prof !9

10:                                               ; preds = %3
  %11 = tail call noalias ptr @H5FL_reg_calloc(ptr noundef nonnull @H5_H5EA_dblock_t_reg_free_list) #4
  %12 = icmp eq ptr %11, null
  br i1 %12, label %13, label %17

13:                                               ; preds = %10
  %14 = load i64, ptr @H5E_EARRAY_g, align 8, !tbaa !10
  %15 = load i64, ptr @H5E_CANTALLOC_g, align 8, !tbaa !10
  %16 = tail call i32 (ptr, ptr, i32, i64, i64, ptr, ...) @H5E_printf_stack(ptr noundef nonnull @.str, ptr noundef nonnull @__func__.H5EA__dblock_alloc, i32 noundef 98, i64 noundef %14, i64 noundef %15, ptr noundef nonnull @.str.1) #4
  br label %.thread

17:                                               ; preds = %10
  %18 = tail call i32 @H5EA__hdr_incr(ptr noundef %0) #4
  %19 = icmp slt i32 %18, 0
  br i1 %19, label %20, label %24

20:                                               ; preds = %17
  %21 = load i64, ptr @H5E_EARRAY_g, align 8, !tbaa !10
  %22 = load i64, ptr @H5E_CANTINC_g, align 8, !tbaa !10
  %23 = tail call i32 (ptr, ptr, i32, i64, i64, ptr, ...) @H5E_printf_stack(ptr noundef nonnull @.str, ptr noundef nonnull @__func__.H5EA__dblock_alloc, i32 noundef 102, i64 noundef %21, i64 noundef %22, ptr noundef nonnull @.str.2) #4
  br label %42

24:                                               ; preds = %17
  %25 = getelementptr inbounds nuw i8, ptr %11, i64 264
  store ptr %0, ptr %25, align 8, !tbaa !12
  %26 = getelementptr inbounds nuw i8, ptr %11, i64 304
  store ptr %1, ptr %26, align 8, !tbaa !25
  %27 = getelementptr inbounds nuw i8, ptr %11, i64 312
  store i64 %2, ptr %27, align 8, !tbaa !26
  %28 = getelementptr inbounds nuw i8, ptr %0, i64 448
  %29 = load i64, ptr %28, align 8, !tbaa !27
  %30 = icmp ugt i64 %2, %29
  br i1 %30, label %31, label %34

31:                                               ; preds = %24
  %32 = udiv i64 %2, %29
  %33 = getelementptr inbounds nuw i8, ptr %11, i64 320
  store i64 %32, ptr %33, align 8, !tbaa !38
  br label %.thread

34:                                               ; preds = %24
  %35 = tail call noalias ptr @H5EA__hdr_alloc_elmts(ptr noundef nonnull %0, i64 noundef %2) #4
  %36 = getelementptr inbounds nuw i8, ptr %11, i64 256
  store ptr %35, ptr %36, align 8, !tbaa !39
  %37 = icmp eq ptr %35, null
  br i1 %37, label %38, label %.thread

38:                                               ; preds = %34
  %39 = load i64, ptr @H5E_EARRAY_g, align 8, !tbaa !10
  %40 = load i64, ptr @H5E_CANTALLOC_g, align 8, !tbaa !10
  %41 = tail call i32 (ptr, ptr, i32, i64, i64, ptr, ...) @H5E_printf_stack(ptr noundef nonnull @.str, ptr noundef nonnull @__func__.H5EA__dblock_alloc, i32 noundef 119, i64 noundef %39, i64 noundef %40, ptr noundef nonnull @.str.3) #4
  br label %42

42:                                               ; preds = %20, %38
  %43 = tail call i32 @H5EA__dblock_dest(ptr noundef nonnull %11)
  %44 = icmp slt i32 %43, 0
  br i1 %44, label %45, label %.thread

45:                                               ; preds = %42
  %46 = load i64, ptr @H5E_EARRAY_g, align 8, !tbaa !10
  %47 = load i64, ptr @H5E_CANTFREE_g, align 8, !tbaa !10
  %48 = tail call i32 (ptr, ptr, i32, i64, i64, ptr, ...) @H5E_printf_stack(ptr noundef nonnull @.str, ptr noundef nonnull @__func__.H5EA__dblock_alloc, i32 noundef 128, i64 noundef %46, i64 noundef %47, ptr noundef nonnull @.str.4) #4
  br label %.thread

.thread:                                          ; preds = %13, %31, %34, %45, %42, %3
  %.0 = phi ptr [ null, %45 ], [ null, %42 ], [ null, %3 ], [ %11, %31 ], [ %11, %34 ], [ null, %13 ]
  ret ptr %.0
}